; Function Attrs: mustprogress uwtable
define noundef double @_ZNK8QuantLib7Forward12forwardValueEv(ptr noundef nonnull align 8 dereferenceable(224) %this) unnamed_addr #9 align 2 {
entry:
  %vtable = load ptr, ptr %this, align 8, !tbaa !33
  %vfn = getelementptr inbounds i8, ptr %vtable, i64 24
  %0 = load ptr, ptr %vfn, align 8
  tail call void %0(ptr noundef nonnull align 8 dereferenceable(104) %this)
  %underlyingSpotValue_ = getelementptr inbounds nuw i8, ptr %this, i64 112
  %1 = load double, ptr %underlyingSpotValue_, align 8, !tbaa !81
  %underlyingIncome_ = getelementptr inbounds nuw i8, ptr %this, i64 104
  %2 = load double, ptr %underlyingIncome_, align 8, !tbaa !82
  %discountCurve_ = getelementptr inbounds nuw i8, ptr %this, i64 192
  %call = tail call noundef nonnull align 8 dereferenceable(16) ptr @_ZNK8QuantLib6HandleINS_18YieldTermStructureEEptEv(ptr noundef nonnull align 8 dereferenceable(16) %discountCurve_)
  %3 = load ptr, ptr %call, align 8, !tbaa !83
  %cmp.not.i = icmp eq ptr %3, null
  br i1 %cmp.not.i, label %cond.false.i, label %_ZNK5boost10shared_ptrIN8QuantLib18YieldTermStructureEEptEv.exit, !prof !85

cond.false.i:                                     ; preds = %entry
  tail call void @_ZN5boost16assertion_failedEPKcS1_S1_l(ptr noundef nonnull @.str.9, ptr noundef nonnull @__PRETTY_FUNCTION__._ZNK5boost10shared_ptrIN8QuantLib18YieldTermStructureEEptEv, ptr noundef nonnull @.str.10, i64 noundef 784)
  %.pre.i = load ptr, ptr %call, align 8, !tbaa !83
  br label %_ZNK5boost10shared_ptrIN8QuantLib18YieldTermStructureEEptEv.exit

_ZNK5boost10shared_ptrIN8QuantLib18YieldTermStructureEEptEv.exit: ; preds = %entry, %cond.false.i
  %4 = phi ptr [ %3, %entry ], [ %.pre.i, %cond.false.i ]
  %sub = fsub double %1, %2
  %maturityDate_ = getelementptr inbounds nuw i8, ptr %this, i64 184
  %call.i = tail call noundef double @_ZNK8QuantLib13TermStructure17timeFromReferenceERKNS_4DateE(ptr noundef nonnull align 8 dereferenceable(64) %4, ptr noundef nonnull align 8 dereferenceable(8) %maturityDate_)
  %call2.i = tail call noundef double @_ZNK8QuantLib18YieldTermStructure8discountEdb(ptr noundef nonnull align 8 dereferenceable(152) %4, double noundef %call.i, i1 noundef zeroext false)
  %div = fdiv double %sub, %call2.i
  ret double %div
}